; Function Attrs: mustprogress noinline uwtable
define dso_local void @_ZN4Luau7CodeGen3X6418AssemblyBuilderX643logEPKcNS1_11RegisterX64ENS0_5LabelE(ptr noundef nonnull align 8 dereferenceable(252) %0, ptr noundef %1, i8 %2, i64 %3) local_unnamed_addr #4 align 2 personality ptr @__gxx_personality_v0 {
  tail call void (ptr, ptr, ...) @_ZN4Luau7CodeGen3X6418AssemblyBuilderX649logAppendEPKcz(ptr noundef nonnull align 8 dereferenceable(252) %0, ptr noundef nonnull @.str.87, ptr noundef %1)
  %.sroa.3.0.insert.ext = zext i8 %2 to i64
  %.sroa.3.0.insert.shift = shl nuw nsw i64 %.sroa.3.0.insert.ext, 16
  %.sroa.2.0.insert.insert = or disjoint i64 %.sroa.3.0.insert.shift, 268468224
  tail call void @_ZN4Luau7CodeGen3X6418AssemblyBuilderX643logENS1_10OperandX64E(ptr noundef nonnull align 8 dereferenceable(252) %0, i64 %.sroa.2.0.insert.insert)
  %5 = getelementptr inbounds nuw i8, ptr %0, i64 56
  %6 = load i64, ptr %5, align 8, !tbaa !10
  %7 = icmp eq i64 %6, 4611686018427387903
  br i1 %7, label %8, label %_ZNSt7__cxx1112basic_stringIcSt11char_traitsIcESaIcEE6appendEPKc.exit

8:                                                ; preds = %4
  tail call void @_ZSt20__throw_length_errorPKc(ptr noundef nonnull @.str.290) #21
  unreachable

_ZNSt7__cxx1112basic_stringIcSt11char_traitsIcESaIcEE6appendEPKc.exit: ; preds = %4
  %9 = getelementptr inbounds nuw i8, ptr %0, i64 48
  %.sroa.02.0.extract.trunc = trunc i64 %3 to i32
  %10 = tail call noundef nonnull align 8 dereferenceable(32) ptr @_ZNSt7__cxx1112basic_stringIcSt11char_traitsIcESaIcEE9_M_appendEPKcm(ptr noundef nonnull align 8 dereferenceable(32) %9, ptr noundef nonnull @.str.89, i64 noundef 1)
  tail call void (ptr, ptr, ...) @_ZN4Luau7CodeGen3X6418AssemblyBuilderX649logAppendEPKcz(ptr noundef nonnull align 8 dereferenceable(252) %0, ptr noundef nonnull @.str.92, i32 noundef %.sroa.02.0.extract.trunc)
  ret void
}